target datalayout = "e-m:e-p270:32:32-p271:32:32-p272:64:64-i64:64-i128:128-f80:128-n8:16:32:64-S128"
target triple = "x86_64-pc-linux-gnu"

%struct.pmix_output_desc_t = type { i8, i8, i32, i8, i32, ptr, ptr, i32, ptr, i32, i8, i8, i8, i8, ptr, i32, i32 }

@initialized = internal global i8 0, align 1
@pmix_output_info = global [64 x %struct.pmix_output_desc_t] zeroinitializer, align 16

; Function Attrs: nounwind uwtable
define void @pmix_output_close(i32 noundef %0) #0 {
  %2 = alloca i32, align 4
  %3 = alloca i32, align 4
  %4 = alloca i32, align 4
  store i32 %0, ptr %2, align 4, !tbaa !33
  call void @llvm.lifetime.start.p0(i64 4, ptr %3) #12
  %5 = load i8, ptr @initialized, align 1, !tbaa !29, !range !30, !noundef !31
  %6 = trunc i8 %5 to i1
  br i1 %6, label %8, label %7

7:                                                ; preds = %1
  store i32 1, ptr %4, align 4
  br label %54

8:                                                ; preds = %1
  %9 = load i32, ptr %2, align 4, !tbaa !33
  %10 = icmp sge i32 %9, 0
  br i1 %10, label %11, label %53

11:                                               ; preds = %8
  %12 = load i32, ptr %2, align 4, !tbaa !33
  %13 = icmp slt i32 %12, 64
  br i1 %13, label %14, label %53

14:                                               ; preds = %11
  %15 = load i32, ptr %2, align 4, !tbaa !33
  %16 = sext i32 %15 to i64
  %17 = getelementptr inbounds [64 x %struct.pmix_output_desc_t], ptr @pmix_output_info, i64 0, i64 %16
  %18 = getelementptr inbounds nuw %struct.pmix_output_desc_t, ptr %17, i32 0, i32 0
  %19 = load i8, ptr %18, align 8, !tbaa !40, !range !30, !noundef !31
  %20 = trunc i8 %19 to i1
  br i1 %20, label %21, label %53

21:                                               ; preds = %14
  %22 = load i32, ptr %2, align 4, !tbaa !33
  %23 = sext i32 %22 to i64
  %24 = getelementptr inbounds [64 x %struct.pmix_output_desc_t], ptr @pmix_output_info, i64 0, i64 %23
  %25 = getelementptr inbounds nuw %struct.pmix_output_desc_t, ptr %24, i32 0, i32 1
  %26 = load i8, ptr %25, align 1, !tbaa !42, !range !30, !noundef !31
  %27 = trunc i8 %26 to i1
  br i1 %27, label %28, label %53

28:                                               ; preds = %21
  %29 = load i32, ptr %2, align 4, !tbaa !33
  call void @free_descriptor(i32 noundef %29)
  store i32 0, ptr %3, align 4, !tbaa !33
  br label %30

30:                                               ; preds = %49, %28
  %31 = load i32, ptr %3, align 4, !tbaa !33
  %32 = icmp slt i32 %31, 64
  br i1 %32, label %33, label %52

33:                                               ; preds = %30
  %34 = load i32, ptr %3, align 4, !tbaa !33
  %35 = sext i32 %34 to i64
  %36 = getelementptr inbounds [64 x %struct.pmix_output_desc_t], ptr @pmix_output_info, i64 0, i64 %35
  %37 = getelementptr inbounds nuw %struct.pmix_output_desc_t, ptr %36, i32 0, i32 0
  %38 = load i8, ptr %37, align 8, !tbaa !40, !range !30, !noundef !31
  %39 = trunc i8 %38 to i1
  br i1 %39, label %40, label %48

40:                                               ; preds = %33
  %41 = load i32, ptr %3, align 4, !tbaa !33
  %42 = sext i32 %41 to i64
  %43 = getelementptr inbounds [64 x %struct.pmix_output_desc_t], ptr @pmix_output_info, i64 0, i64 %42
  %44 = getelementptr inbounds nuw %struct.pmix_output_desc_t, ptr %43, i32 0, i32 3
  %45 = load i8, ptr %44, align 8, !tbaa !43, !range !30, !noundef !31
  %46 = trunc i8 %45 to i1
  br i1 %46, label %47, label %48

47:                                               ; preds = %40
  br label %52

48:                                               ; preds = %40, %33
  br label %49

49:                                               ; preds = %48
  %50 = load i32, ptr %3, align 4, !tbaa !33
  %51 = add nsw i32 %50, 1
  store i32 %51, ptr %3, align 4, !tbaa !33
  br label %30, !llvm.loop !73

52:                                               ; preds = %47, %30
  br label %53

53:                                               ; preds = %52, %21, %14, %11, %8
  store i32 0, ptr %4, align 4
  br label %54

54:                                               ; preds = %53, %7
  call void @llvm.lifetime.end.p0(i64 4, ptr %3) #12
  %55 = load i32, ptr %4, align 4
  switch i32 %55, label %57 [
    i32 0, label %56
    i32 1, label %56
  ]

56:                                               ; preds = %54, %54
  ret void

57:                                               ; preds = %54
  unreachable
}