; Function Attrs: nounwind uwtable
define void @pmix_output_close(i32 noundef %0) local_unnamed_addr #2 {
  %.b11 = load i1, ptr @initialized, align 1
  %or.cond = icmp ult i32 %0, 64
  %or.cond12 = and i1 %or.cond, %.b11
  br i1 %or.cond12, label %2, label %.loopexit

2:                                                ; preds = %1
  %3 = zext nneg i32 %0 to i64
  %4 = getelementptr inbounds nuw [64 x %struct.pmix_output_desc_t], ptr @pmix_output_info, i64 0, i64 %3
  %5 = load i8, ptr %4, align 8, !tbaa !34, !range !26, !noundef !27
  %6 = trunc nuw i8 %5 to i1
  br i1 %6, label %7, label %.loopexit

7:                                                ; preds = %2
  %8 = getelementptr inbounds nuw i8, ptr %4, i64 1
  %9 = load i8, ptr %8, align 1, !tbaa !36, !range !26, !noundef !27
  %10 = trunc nuw i8 %9 to i1
  br i1 %10, label %.loopexit.loopexit, label %.loopexit

.loopexit.loopexit:                               ; preds = %7
  tail call fastcc void @free_descriptor(i32 noundef %0)
  br label %.loopexit

.loopexit:                                        ; preds = %.loopexit.loopexit, %2, %7, %1
  ret void
}